target datalayout = "e-m:e-p270:32:32-p271:32:32-p272:64:64-i64:64-i128:128-f80:128-n8:16:32:64-S128"
target triple = "x86_64-pc-linux-gnu"

%struct.wl_interface = type { ptr, i32, i32, ptr, i32, ptr }
%struct.SDL_WindowData = type { ptr, ptr, ptr, ptr, ptr, ptr, ptr, %union.anon, i32, i32, i32, i32, ptr, ptr, ptr, ptr, ptr, ptr, ptr, ptr, ptr, ptr, ptr, ptr, ptr, ptr, %struct.SDL_AtomicInt, ptr, i32, ptr, double, ptr, i32, i32, i32, i32, %struct.anon.3, %struct.anon.4, %struct.anon.5, %struct.anon.6, %struct.anon.7, %struct.anon.8, %struct.anon.9, i32, i32, i32, i64, i32, i32, i8, i8, i8, i8, i8, i8, i8, i8, i8, i8, i8, i8, i8, i8, i32, %struct.wl_list }
%union.anon = type { %struct.anon }
%struct.anon = type { ptr, %union.anon.0, i8 }
%union.anon.0 = type { %struct.anon.2 }
%struct.anon.2 = type { ptr, ptr }
%struct.SDL_AtomicInt = type { i32 }
%struct.anon.3 = type { double, double }
%struct.anon.4 = type { i32, i32, i32, i32 }
%struct.anon.5 = type { i32, i32, i32, i32 }
%struct.anon.6 = type { i32, i32 }
%struct.anon.7 = type { i32, i32 }
%struct.anon.8 = type { i32, i32 }
%struct.anon.9 = type { i32, i32, i8 }
%struct.wl_list = type { ptr, ptr }
%struct.SDL_Window = type { i32, ptr, ptr, i32, i32, i32, i32, i32, i32, i32, i32, float, float, i32, i32, i64, i64, float, i8, i8, i32, i32, %struct.SDL_Rect, %struct.SDL_Rect, %struct.SDL_Rect, i8, i8, i8, %struct.SDL_DisplayMode, %struct.SDL_DisplayMode, %struct.SDL_HDROutputProperties, float, ptr, i8, i8, i8, i8, i8, i8, i8, i8, i8, i32, i32, i32, i32, %struct.SDL_Rect, i32, i8, %struct.SDL_Rect, i32, %struct.SDL_Rect, ptr, ptr, i32, float, i32, i32, ptr, ptr, ptr, ptr, ptr, ptr, ptr, ptr, ptr }
%struct.SDL_DisplayMode = type { i32, i32, i32, i32, float, float, i32, i32, ptr }
%struct.SDL_HDROutputProperties = type { float, float }
%struct.SDL_Rect = type { i32, i32, i32, i32 }
%struct.anon.1 = type { ptr }
%struct.SDL_VideoDevice = type { ptr, ptr, ptr, ptr, ptr, ptr, ptr, ptr, ptr, ptr, ptr, ptr, ptr, ptr, ptr, ptr, ptr, ptr, ptr, ptr, ptr, ptr, ptr, ptr, ptr, ptr, ptr, ptr, ptr, ptr, ptr, ptr, ptr, ptr, ptr, ptr, ptr, ptr, ptr, ptr, ptr, ptr, ptr, ptr, ptr, ptr, ptr, ptr, ptr, ptr, ptr, ptr, ptr, ptr, ptr, ptr, ptr, ptr, ptr, ptr, ptr, ptr, ptr, ptr, ptr, ptr, ptr, ptr, ptr, ptr, ptr, ptr, ptr, ptr, ptr, ptr, ptr, ptr, ptr, ptr, ptr, ptr, ptr, ptr, ptr, ptr, ptr, ptr, ptr, ptr, ptr, ptr, ptr, ptr, ptr, ptr, ptr, i64, i8, i8, i8, ptr, i32, ptr, %struct.SDL_Rect, ptr, ptr, i32, ptr, ptr, ptr, ptr, i64, ptr, i8, i32, i32, %struct.anon.10, ptr, ptr, ptr, ptr, ptr, ptr, %struct.SDL_AtomicInt, %struct.SDL_AtomicInt, i8, %struct.anon.11, ptr, ptr, ptr, ptr, ptr }
%struct.anon.10 = type { i32, i32, i32, i32, i32, i32, i32, i32, i32, i32, i32, i32, i32, i32, i32, i32, i32, i32, i32, i32, i32, i32, i32, i32, i32, i32, i32, i32, i32, [256 x i8], ptr }
%struct.anon.11 = type { ptr, ptr, i32, [256 x i8], ptr }
%struct.SDL_VideoData = type { i8, ptr, i32, ptr, ptr, ptr, ptr, i32, %struct.anon.12, ptr, ptr, ptr, ptr, ptr, ptr, ptr, ptr, ptr, ptr, ptr, ptr, ptr, ptr, ptr, ptr, ptr, ptr, ptr, ptr, ptr, ptr, %struct.wl_list, ptr, ptr, ptr, ptr, i32, i32, i8, i8 }
%struct.anon.12 = type { ptr }

@WAYLAND_wl_proxy_get_version = external global ptr, align 8
@WAYLAND_wl_proxy_marshal_flags = external global ptr, align 8
@xdg_dialog_v1_interface = external constant %struct.wl_interface, align 8

; Function Attrs: inlinehint nounwind uwtable
define internal void @xdg_dialog_v1_unset_modal(ptr noundef %0) #4 {
  %2 = alloca ptr, align 8
  store ptr %0, ptr %2, align 8
  %3 = load ptr, ptr @WAYLAND_wl_proxy_marshal_flags, align 8
  %4 = load ptr, ptr %2, align 8
  %5 = load ptr, ptr @WAYLAND_wl_proxy_get_version, align 8
  %6 = load ptr, ptr %2, align 8
  %7 = call i32 %5(ptr noundef %6)
  %8 = call ptr (ptr, i32, ptr, i32, i32, ...) %3(ptr noundef %4, i32 noundef 2, ptr noundef null, i32 noundef %7, i32 noundef 0)
  ret void
}

; Function Attrs: inlinehint nounwind uwtable
define internal void @xdg_dialog_v1_set_modal(ptr noundef %0) #4 {
  %2 = alloca ptr, align 8
  store ptr %0, ptr %2, align 8
  %3 = load ptr, ptr @WAYLAND_wl_proxy_marshal_flags, align 8
  %4 = load ptr, ptr %2, align 8
  %5 = load ptr, ptr @WAYLAND_wl_proxy_get_version, align 8
  %6 = load ptr, ptr %2, align 8
  %7 = call i32 %5(ptr noundef %6)
  %8 = call ptr (ptr, i32, ptr, i32, i32, ...) %3(ptr noundef %4, i32 noundef 1, ptr noundef null, i32 noundef %7, i32 noundef 0)
  ret void
}

; Function Attrs: inlinehint nounwind uwtable
define internal ptr @xdg_wm_dialog_v1_get_xdg_dialog(ptr noundef %0, ptr noundef %1) #4 {
  %3 = alloca ptr, align 8
  %4 = alloca ptr, align 8
  %5 = alloca ptr, align 8
  store ptr %0, ptr %3, align 8
  store ptr %1, ptr %4, align 8
  call void @llvm.lifetime.start.p0(i64 8, ptr %5) #10
  %6 = load ptr, ptr @WAYLAND_wl_proxy_marshal_flags, align 8
  %7 = load ptr, ptr %3, align 8
  %8 = load ptr, ptr @WAYLAND_wl_proxy_get_version, align 8
  %9 = load ptr, ptr %3, align 8
  %10 = call i32 %8(ptr noundef %9)
  %11 = load ptr, ptr %4, align 8
  %12 = call ptr (ptr, i32, ptr, i32, i32, ...) %6(ptr noundef %7, i32 noundef 1, ptr noundef @xdg_dialog_v1_interface, i32 noundef %10, i32 noundef 0, ptr noundef null, ptr noundef %11)
  store ptr %12, ptr %5, align 8
  %13 = load ptr, ptr %5, align 8
  call void @llvm.lifetime.end.p0(i64 8, ptr %5) #10
  ret ptr %13
}

; Function Attrs: nounwind uwtable
define internal ptr @GetToplevelForWindow(ptr noundef %0) #0 {
  %2 = alloca ptr, align 8
  %3 = alloca ptr, align 8
  store ptr %0, ptr %3, align 8
  %4 = load ptr, ptr %3, align 8
  %5 = icmp ne ptr %4, null
  br i1 %5, label %6, label %25

6:                                                ; preds = %1
  %7 = load ptr, ptr %3, align 8
  %8 = getelementptr inbounds nuw %struct.SDL_WindowData, ptr %7, i32 0, i32 8
  %9 = load i32, ptr %8, align 8
  %10 = icmp eq i32 %9, 1
  br i1 %10, label %11, label %24

11:                                               ; preds = %6
  %12 = load ptr, ptr %3, align 8
  %13 = getelementptr inbounds nuw %struct.SDL_WindowData, ptr %12, i32 0, i32 7
  %14 = getelementptr inbounds nuw %struct.anon, ptr %13, i32 0, i32 1
  %15 = getelementptr inbounds nuw %struct.anon.1, ptr %14, i32 0, i32 0
  %16 = load ptr, ptr %15, align 8
  %17 = icmp ne ptr %16, null
  br i1 %17, label %18, label %24

18:                                               ; preds = %11
  %19 = load ptr, ptr %3, align 8
  %20 = getelementptr inbounds nuw %struct.SDL_WindowData, ptr %19, i32 0, i32 7
  %21 = getelementptr inbounds nuw %struct.anon, ptr %20, i32 0, i32 1
  %22 = getelementptr inbounds nuw %struct.anon.1, ptr %21, i32 0, i32 0
  %23 = load ptr, ptr %22, align 8
  store ptr %23, ptr %2, align 8
  br label %26

24:                                               ; preds = %11, %6
  br label %25

25:                                               ; preds = %24, %1
  store ptr null, ptr %2, align 8
  br label %26

26:                                               ; preds = %25, %18
  %27 = load ptr, ptr %2, align 8
  ret ptr %27
}

; Function Attrs: nounwind uwtable
define hidden zeroext i1 @Wayland_SetWindowModal(ptr noundef %0, ptr noundef %1, i1 noundef zeroext %2) #0 {
  %4 = alloca i1, align 1
  %5 = alloca ptr, align 8
  %6 = alloca ptr, align 8
  %7 = alloca i8, align 1
  %8 = alloca ptr, align 8
  %9 = alloca ptr, align 8
  %10 = alloca ptr, align 8
  %11 = alloca i32, align 4
  %12 = alloca ptr, align 8
  store ptr %0, ptr %5, align 8
  store ptr %1, ptr %6, align 8
  %13 = zext i1 %2 to i8
  store i8 %13, ptr %7, align 1
  call void @llvm.lifetime.start.p0(i64 8, ptr %8) #10
  %14 = load ptr, ptr %5, align 8
  %15 = getelementptr inbounds nuw %struct.SDL_VideoDevice, ptr %14, i32 0, i32 128
  %16 = load ptr, ptr %15, align 8
  store ptr %16, ptr %8, align 8
  call void @llvm.lifetime.start.p0(i64 8, ptr %9) #10
  %17 = load ptr, ptr %6, align 8
  %18 = getelementptr inbounds nuw %struct.SDL_Window, ptr %17, i32 0, i32 59
  %19 = load ptr, ptr %18, align 8
  store ptr %19, ptr %9, align 8
  call void @llvm.lifetime.start.p0(i64 8, ptr %10) #10
  %20 = load ptr, ptr %6, align 8
  %21 = getelementptr inbounds nuw %struct.SDL_Window, ptr %20, i32 0, i32 63
  %22 = load ptr, ptr %21, align 8
  %23 = getelementptr inbounds nuw %struct.SDL_Window, ptr %22, i32 0, i32 59
  %24 = load ptr, ptr %23, align 8
  store ptr %24, ptr %10, align 8
  %25 = load ptr, ptr %10, align 8
  %26 = getelementptr inbounds nuw %struct.SDL_WindowData, ptr %25, i32 0, i32 9
  %27 = load i32, ptr %26, align 4
  %28 = icmp ne i32 %27, 4
  br i1 %28, label %29, label %32

29:                                               ; preds = %3
  %30 = load ptr, ptr %9, align 8
  %31 = getelementptr inbounds nuw %struct.SDL_WindowData, ptr %30, i32 0, i32 61
  store i8 1, ptr %31, align 4
  store i1 true, ptr %4, align 1
  store i32 1, ptr %11, align 4
  br label %78

32:                                               ; preds = %3
  %33 = load ptr, ptr %9, align 8
  %34 = getelementptr inbounds nuw %struct.SDL_WindowData, ptr %33, i32 0, i32 61
  store i8 0, ptr %34, align 4
  br label %35

35:                                               ; preds = %32
  call void @llvm.lifetime.start.p0(i64 8, ptr %12) #10
  %36 = load ptr, ptr %9, align 8
  %37 = call ptr @GetToplevelForWindow(ptr noundef %36)
  store ptr %37, ptr %12, align 8
  %38 = load ptr, ptr %12, align 8
  %39 = icmp ne ptr %38, null
  br i1 %39, label %40, label %77

40:                                               ; preds = %35
  %41 = load ptr, ptr %8, align 8
  %42 = getelementptr inbounds nuw %struct.SDL_VideoData, ptr %41, i32 0, i32 24
  %43 = load ptr, ptr %42, align 8
  %44 = icmp ne ptr %43, null
  br i1 %44, label %45, label %76

45:                                               ; preds = %40
  %46 = load i8, ptr %7, align 1, !range !5, !noundef !6
  %47 = trunc i8 %46 to i1
  br i1 %47, label %48, label %65

48:                                               ; preds = %45
  %49 = load ptr, ptr %9, align 8
  %50 = getelementptr inbounds nuw %struct.SDL_WindowData, ptr %49, i32 0, i32 20
  %51 = load ptr, ptr %50, align 8
  %52 = icmp ne ptr %51, null
  br i1 %52, label %61, label %53

53:                                               ; preds = %48
  %54 = load ptr, ptr %8, align 8
  %55 = getelementptr inbounds nuw %struct.SDL_VideoData, ptr %54, i32 0, i32 24
  %56 = load ptr, ptr %55, align 8
  %57 = load ptr, ptr %12, align 8
  %58 = call ptr @xdg_wm_dialog_v1_get_xdg_dialog(ptr noundef %56, ptr noundef %57)
  %59 = load ptr, ptr %9, align 8
  %60 = getelementptr inbounds nuw %struct.SDL_WindowData, ptr %59, i32 0, i32 20
  store ptr %58, ptr %60, align 8
  br label %61

61:                                               ; preds = %53, %48
  %62 = load ptr, ptr %9, align 8
  %63 = getelementptr inbounds nuw %struct.SDL_WindowData, ptr %62, i32 0, i32 20
  %64 = load ptr, ptr %63, align 8
  call void @xdg_dialog_v1_set_modal(ptr noundef %64)
  br label %75

65:                                               ; preds = %45
  %66 = load ptr, ptr %9, align 8
  %67 = getelementptr inbounds nuw %struct.SDL_WindowData, ptr %66, i32 0, i32 20
  %68 = load ptr, ptr %67, align 8
  %69 = icmp ne ptr %68, null
  br i1 %69, label %70, label %74

70:                                               ; preds = %65
  %71 = load ptr, ptr %9, align 8
  %72 = getelementptr inbounds nuw %struct.SDL_WindowData, ptr %71, i32 0, i32 20
  %73 = load ptr, ptr %72, align 8
  call void @xdg_dialog_v1_unset_modal(ptr noundef %73)
  br label %74

74:                                               ; preds = %70, %65
  br label %75

75:                                               ; preds = %74, %61
  br label %76

76:                                               ; preds = %75, %40
  br label %77

77:                                               ; preds = %76, %35
  store i1 true, ptr %4, align 1
  store i32 1, ptr %11, align 4
  call void @llvm.lifetime.end.p0(i64 8, ptr %12) #10
  br label %78

78:                                               ; preds = %77, %29
  call void @llvm.lifetime.end.p0(i64 8, ptr %10) #10
  call void @llvm.lifetime.end.p0(i64 8, ptr %9) #10
  call void @llvm.lifetime.end.p0(i64 8, ptr %8) #10
  %79 = load i1, ptr %4, align 1
  ret i1 %79
}