; Function Attrs: nounwind uwtable
define hidden noundef zeroext i1 @Wayland_SetWindowModal(ptr noundef readonly captures(none) %0, ptr noundef readonly captures(none) %1, i1 noundef zeroext %2) local_unnamed_addr #0 {
  %4 = getelementptr inbounds nuw i8, ptr %0, i64 1656
  %5 = load ptr, ptr %4, align 8
  %6 = getelementptr inbounds nuw i8, ptr %1, i64 392
  %7 = load ptr, ptr %6, align 8
  %8 = getelementptr inbounds nuw i8, ptr %1, i64 424
  %9 = load ptr, ptr %8, align 8
  %10 = getelementptr inbounds nuw i8, ptr %9, i64 392
  %11 = load ptr, ptr %10, align 8
  %12 = getelementptr inbounds nuw i8, ptr %11, i64 92
  %13 = load i32, ptr %12, align 4
  %.not = icmp eq i32 %13, 4
  %14 = getelementptr inbounds nuw i8, ptr %7, i64 404
  br i1 %.not, label %16, label %15

15:                                               ; preds = %3
  store i8 1, ptr %14, align 4
  br label %GetToplevelForWindow.exit.thread

16:                                               ; preds = %3
  store i8 0, ptr %14, align 4
  %17 = getelementptr inbounds nuw i8, ptr %7, i64 88
  %18 = load i32, ptr %17, align 8
  %19 = icmp eq i32 %18, 1
  br i1 %19, label %20, label %GetToplevelForWindow.exit.thread

20:                                               ; preds = %16
  %21 = getelementptr inbounds nuw i8, ptr %7, i64 64
  %22 = load ptr, ptr %21, align 8
  %.not7.i = icmp eq ptr %22, null
  br i1 %.not7.i, label %GetToplevelForWindow.exit.thread, label %GetToplevelForWindow.exit

GetToplevelForWindow.exit:                        ; preds = %20
  %23 = getelementptr inbounds nuw i8, ptr %5, i64 192
  %24 = load ptr, ptr %23, align 8
  %.not20 = icmp eq ptr %24, null
  br i1 %.not20, label %GetToplevelForWindow.exit.thread, label %25

25:                                               ; preds = %GetToplevelForWindow.exit
  %26 = getelementptr inbounds nuw i8, ptr %7, i64 168
  %27 = load ptr, ptr %26, align 8
  %.not22 = icmp eq ptr %27, null
  br i1 %2, label %28, label %40

28:                                               ; preds = %25
  br i1 %.not22, label %29, label %34

29:                                               ; preds = %28
  %30 = load ptr, ptr @WAYLAND_wl_proxy_marshal_flags, align 8
  %31 = load ptr, ptr @WAYLAND_wl_proxy_get_version, align 8
  %32 = tail call i32 %31(ptr noundef nonnull %24) #15
  %33 = tail call ptr (ptr, i32, ptr, i32, i32, ...) %30(ptr noundef nonnull %24, i32 noundef 1, ptr noundef nonnull @xdg_dialog_v1_interface, i32 noundef %32, i32 noundef 0, ptr noundef null, ptr noundef nonnull %22) #15
  store ptr %33, ptr %26, align 8
  br label %34

34:                                               ; preds = %29, %28
  %35 = phi ptr [ %33, %29 ], [ %27, %28 ]
  %36 = load ptr, ptr @WAYLAND_wl_proxy_marshal_flags, align 8
  %37 = load ptr, ptr @WAYLAND_wl_proxy_get_version, align 8
  %38 = tail call i32 %37(ptr noundef %35) #15
  %39 = tail call ptr (ptr, i32, ptr, i32, i32, ...) %36(ptr noundef %35, i32 noundef 1, ptr noundef null, i32 noundef %38, i32 noundef 0) #15
  br label %GetToplevelForWindow.exit.thread

40:                                               ; preds = %25
  br i1 %.not22, label %GetToplevelForWindow.exit.thread, label %41

41:                                               ; preds = %40
  %42 = load ptr, ptr @WAYLAND_wl_proxy_marshal_flags, align 8
  %43 = load ptr, ptr @WAYLAND_wl_proxy_get_version, align 8
  %44 = tail call i32 %43(ptr noundef nonnull %27) #15
  %45 = tail call ptr (ptr, i32, ptr, i32, i32, ...) %42(ptr noundef nonnull %27, i32 noundef 2, ptr noundef null, i32 noundef %44, i32 noundef 0) #15
  br label %GetToplevelForWindow.exit.thread

GetToplevelForWindow.exit.thread:                 ; preds = %20, %16, %34, %41, %40, %GetToplevelForWindow.exit, %15
  ret i1 true
}